; Function Attrs: mustprogress uwtable
define void @_ZN8LightGBM7Linkers9SetLinkerEiRKNS_9TcpSocketE(ptr noundef nonnull readonly align 8 captures(none) dereferenceable(304) %0, i32 noundef %1, ptr noundef nonnull align 4 dereferenceable(4) %2) local_unnamed_addr #3 align 2 personality ptr @__gxx_personality_v0 {
  %4 = alloca i32, align 4
  %5 = getelementptr inbounds nuw i8, ptr %0, i64 272
  %6 = sext i32 %1 to i64
  %7 = load ptr, ptr %5, align 8, !tbaa !101
  %8 = tail call noalias noundef nonnull dereferenceable(4) ptr @_Znwm(i64 noundef 4) #31
  invoke void @_ZN8LightGBM9TcpSocketC2ERKS0_(ptr noundef nonnull align 4 dereferenceable(4) %8, ptr noundef nonnull align 4 dereferenceable(4) %2)
          to label %9 unwind label %20

9:                                                ; preds = %3
  %10 = getelementptr inbounds nuw %"class.std::unique_ptr", ptr %7, i64 %6
  %11 = load ptr, ptr %10, align 8, !tbaa !91
  store ptr %8, ptr %10, align 8, !tbaa !91
  %.not.i.i = icmp eq ptr %11, null
  br i1 %.not.i.i, label %_ZNSt10unique_ptrIN8LightGBM9TcpSocketESt14default_deleteIS1_EE5resetEPS1_.exit, label %_ZNKSt14default_deleteIN8LightGBM9TcpSocketEEclEPS1_.exit.i.i

_ZNKSt14default_deleteIN8LightGBM9TcpSocketEEclEPS1_.exit.i.i: ; preds = %9
  tail call void @_ZdlPv(ptr noundef nonnull %11) #30
  br label %_ZNSt10unique_ptrIN8LightGBM9TcpSocketESt14default_deleteIS1_EE5resetEPS1_.exit

_ZNSt10unique_ptrIN8LightGBM9TcpSocketESt14default_deleteIS1_EE5resetEPS1_.exit: ; preds = %9, %_ZNKSt14default_deleteIN8LightGBM9TcpSocketEEclEPS1_.exit.i.i
  %12 = load ptr, ptr %5, align 8, !tbaa !101
  %13 = getelementptr inbounds nuw %"class.std::unique_ptr", ptr %12, i64 %6
  %14 = load ptr, ptr %13, align 8, !tbaa !91
  %15 = getelementptr inbounds nuw i8, ptr %0, i64 264
  %16 = load i32, ptr %15, align 8, !tbaa !69
  %17 = mul nsw i32 %16, 60000
  call void @llvm.lifetime.start.p0(i64 4, ptr nonnull %4)
  store i32 %17, ptr %4, align 4, !tbaa !74
  %18 = load i32, ptr %14, align 4, !tbaa !97
  %19 = call i32 @setsockopt(i32 noundef %18, i32 noundef 1, i32 noundef 20, ptr noundef nonnull %4, i32 noundef 4) #29
  call void @llvm.lifetime.end.p0(i64 4, ptr nonnull %4)
  ret void

20:                                               ; preds = %3
  %21 = landingpad { ptr, i32 }
          cleanup
  tail call void @_ZdlPv(ptr noundef nonnull %8) #30
  resume { ptr, i32 } %21
}